; ModuleID = '62/1749.cpp'
source_filename = "62/1749.cpp"
target datalayout = "e-m:e-p270:32:32-p271:32:32-p272:64:64-i64:64-f80:128-n8:16:32:64-S128"
target triple = "x86_64-pc-linux-gnu"

%"class.std::ios_base::Init" = type { i8 }
%"class.std::basic_istream" = type { i32 (...)**, i64, %"class.std::basic_ios" }
%"class.std::basic_ios" = type { %"class.std::ios_base", %"class.std::basic_ostream"*, i8, i8, %"class.std::basic_streambuf"*, %"class.std::ctype"*, %"class.std::num_put"*, %"class.std::num_get"* }
%"class.std::ios_base" = type { i32 (...)**, i64, i64, i32, i32, i32, %"struct.std::ios_base::_Callback_list"*, %"struct.std::ios_base::_Words", [8 x %"struct.std::ios_base::_Words"], i32, %"struct.std::ios_base::_Words"*, %"class.std::locale" }
%"struct.std::ios_base::_Callback_list" = type { %"struct.std::ios_base::_Callback_list"*, void (i32, %"class.std::ios_base"*, i32)*, i32, i32 }
%"struct.std::ios_base::_Words" = type { i8*, i64 }
%"class.std::locale" = type { %"class.std::locale::_Impl"* }
%"class.std::locale::_Impl" = type { i32, %"class.std::locale::facet"**, i64, %"class.std::locale::facet"**, i8** }
%"class.std::locale::facet" = type <{ i32 (...)**, i32, [4 x i8] }>
%"class.std::basic_ostream" = type { i32 (...)**, %"class.std::basic_ios" }
%"class.std::basic_streambuf" = type { i32 (...)**, i8*, i8*, i8*, i8*, i8*, i8*, %"class.std::locale" }
%"class.std::ctype" = type <{ %"class.std::locale::facet.base", [4 x i8], %struct.__locale_struct*, i8, [7 x i8], i32*, i32*, i16*, i8, [256 x i8], [256 x i8], i8, [6 x i8] }>
%"class.std::locale::facet.base" = type <{ i32 (...)**, i32 }>
%struct.__locale_struct = type { [13 x %struct.__locale_data*], i16*, i32*, i32*, [13 x i8*] }
%struct.__locale_data = type opaque
%"class.std::num_put" = type { %"class.std::locale::facet.base", [4 x i8] }
%"class.std::num_get" = type { %"class.std::locale::facet.base", [4 x i8] }

@_ZStL8__ioinit = internal global %"class.std::ios_base::Init" zeroinitializer, align 1
@__dso_handle = external hidden global i8
@_ZSt3cin = external dso_local global %"class.std::basic_istream", align 8
@_ZSt4cout = external dso_local global %"class.std::basic_ostream", align 8
@llvm.global_ctors = appending global [1 x { i32, void ()*, i8* }] [{ i32, void ()*, i8* } { i32 65535, void ()* @_GLOBAL__sub_I_1749.cpp, i8* null }]

; Function Attrs: noinline uwtable
define internal void @__cxx_global_var_init() #0 section ".text.startup" {
  call void @_ZNSt8ios_base4InitC1Ev(%"class.std::ios_base::Init"* @_ZStL8__ioinit)
  %1 = call i32 @__cxa_atexit(void (i8*)* bitcast (void (%"class.std::ios_base::Init"*)* @_ZNSt8ios_base4InitD1Ev to void (i8*)*), i8* getelementptr inbounds (%"class.std::ios_base::Init", %"class.std::ios_base::Init"* @_ZStL8__ioinit, i32 0, i32 0), i8* @__dso_handle) #3
  ret void
}

declare dso_local void @_ZNSt8ios_base4InitC1Ev(%"class.std::ios_base::Init"*) unnamed_addr #1

; Function Attrs: nounwind
declare dso_local void @_ZNSt8ios_base4InitD1Ev(%"class.std::ios_base::Init"*) unnamed_addr #2

; Function Attrs: nounwind
declare dso_local i32 @__cxa_atexit(void (i8*)*, i8*, i8*) #3

; Function Attrs: noinline norecurse uwtable
define dso_local i32 @main() #4 {
  %1 = alloca i32, align 4
  %2 = alloca i32, align 4
  %3 = alloca i8*, align 8
  %4 = alloca i8*, align 8
  %5 = alloca [100 x i8], align 16
  store i32 0, i32* %1, align 4
  %6 = getelementptr inbounds [100 x i8], [100 x i8]* %5, i64 0, i64 0
  %7 = call dereferenceable(280) %"class.std::basic_istream"* @_ZNSi7getlineEPcl(%"class.std::basic_istream"* @_ZSt3cin, i8* %6, i64 99)
  %8 = getelementptr inbounds [100 x i8], [100 x i8]* %5, i64 0, i64 0
  store i8* %8, i8** %3, align 8
  %9 = getelementptr inbounds [100 x i8], [100 x i8]* %5, i64 0, i64 0
  store i8* %9, i8** %4, align 8
  br label %10

10:                                               ; preds = %35, %0
  %11 = load i8*, i8** %3, align 8
  %12 = load i8, i8* %11, align 1
  %13 = sext i8 %12 to i32
  %14 = icmp ne i32 %13, 0
  br i1 %14, label %15, label %38

15:                                               ; preds = %10
  %16 = load i8*, i8** %3, align 8
  %17 = load i8, i8* %16, align 1
  %18 = sext i8 %17 to i32
  %19 = icmp eq i32 %18, 32
  br i1 %19, label %20, label %35

20:                                               ; preds = %15
  %21 = load i8*, i8** %3, align 8
  %22 = getelementptr inbounds i8, i8* %21, i64 -1
  %23 = load i8, i8* %22, align 1
  %24 = sext i8 %23 to i32
  %25 = icmp eq i32 %24, 32
  br i1 %25, label %32, label %26

26:                                               ; preds = %20
  %27 = load i8*, i8** %3, align 8
  %28 = getelementptr inbounds i8, i8* %27, i64 -1
  %29 = load i8, i8* %28, align 1
  %30 = sext i8 %29 to i32
  %31 = icmp eq i32 %30, 0
  br i1 %31, label %32, label %34

32:                                               ; preds = %26, %20
  %33 = load i8*, i8** %3, align 8
  store i8 0, i8* %33, align 1
  br label %34

34:                                               ; preds = %32, %26
  br label %35

35:                                               ; preds = %34, %15
  %36 = load i8*, i8** %3, align 8
  %37 = getelementptr inbounds i8, i8* %36, i32 1
  store i8* %37, i8** %3, align 8
  br label %10

38:                                               ; preds = %10
  store i32 0, i32* %2, align 4
  br label %39

39:                                               ; preds = %62, %38
  %40 = load i32, i32* %2, align 4
  %41 = sext i32 %40 to i64
  %42 = load i8*, i8** %3, align 8
  %43 = load i8*, i8** %4, align 8
  %44 = ptrtoint i8* %42 to i64
  %45 = ptrtoint i8* %43 to i64
  %46 = sub i64 %44, %45
  %47 = icmp slt i64 %41, %46
  br i1 %47, label %48, label %65

48:                                               ; preds = %39
  %49 = load i32, i32* %2, align 4
  %50 = sext i32 %49 to i64
  %51 = getelementptr inbounds [100 x i8], [100 x i8]* %5, i64 0, i64 %50
  %52 = load i8, i8* %51, align 1
  %53 = sext i8 %52 to i32
  %54 = icmp ne i32 %53, 0
  br i1 %54, label %55, label %61

55:                                               ; preds = %48
  %56 = load i32, i32* %2, align 4
  %57 = sext i32 %56 to i64
  %58 = getelementptr inbounds [100 x i8], [100 x i8]* %5, i64 0, i64 %57
  %59 = load i8, i8* %58, align 1
  %60 = call dereferenceable(272) %"class.std::basic_ostream"* @_ZStlsISt11char_traitsIcEERSt13basic_ostreamIcT_ES5_c(%"class.std::basic_ostream"* dereferenceable(272) @_ZSt4cout, i8 signext %59)
  br label %61

61:                                               ; preds = %55, %48
  br label %62

62:                                               ; preds = %61
  %63 = load i32, i32* %2, align 4
  %64 = add nsw i32 %63, 1
  store i32 %64, i32* %2, align 4
  br label %39

65:                                               ; preds = %39
  ret i32 0
}

declare dso_local dereferenceable(280) %"class.std::basic_istream"* @_ZNSi7getlineEPcl(%"class.std::basic_istream"*, i8*, i64) #1

declare dso_local dereferenceable(272) %"class.std::basic_ostream"* @_ZStlsISt11char_traitsIcEERSt13basic_ostreamIcT_ES5_c(%"class.std::basic_ostream"* dereferenceable(272), i8 signext) #1

; Function Attrs: noinline uwtable
define internal void @_GLOBAL__sub_I_1749.cpp() #0 section ".text.startup" {
  call void @__cxx_global_var_init()
  ret void
}


!llvm.module.flags = !{!0}
!llvm.ident = !{!1}

!0 = !{i32 1, !"wchar_size", i32 4}
!1 = !{!"clang version 10.0.0-4ubuntu1 "}
